target datalayout = "e-m:e-p270:32:32-p271:32:32-p272:64:64-i64:64-i128:128-f80:128-n8:16:32:64-S128"
target triple = "x86_64-pc-linux-gnu"

%struct.XML_Parser_Struct = type { i32, ptr, ptr, ptr, ptr, ptr, ptr, ptr, ptr, ptr, ptr, ptr, ptr, ptr, ptr }

@xmlFree = external global ptr, align 8
@xmlMalloc = external global ptr, align 8
@.str.9 = private unnamed_addr constant [5 x i8] c"<!--\00", align 1
@.str.10 = private unnamed_addr constant [4 x i8] c"-->\00", align 1

; Function Attrs: nounwind uwtable
define internal void @build_comment(ptr noundef %0, i64 noundef %1, ptr noundef %2, ptr noundef %3) #0 {
  %5 = alloca ptr, align 8
  %6 = alloca i64, align 8
  %7 = alloca ptr, align 8
  %8 = alloca ptr, align 8
  store ptr %0, ptr %5, align 8, !tbaa !4
  store i64 %1, ptr %6, align 8, !tbaa !83
  store ptr %2, ptr %7, align 8, !tbaa !96
  store ptr %3, ptr %8, align 8, !tbaa !97
  %9 = load i64, ptr %6, align 8, !tbaa !83
  %10 = add i64 %9, 7
  %11 = load ptr, ptr %8, align 8, !tbaa !97
  store i64 %10, ptr %11, align 8, !tbaa !83
  %12 = load ptr, ptr @xmlMalloc, align 8, !tbaa !53
  %13 = load ptr, ptr %8, align 8, !tbaa !97
  %14 = load i64, ptr %13, align 8, !tbaa !83
  %15 = add i64 %14, 1
  %16 = call ptr %12(i64 noundef %15)
  %17 = load ptr, ptr %7, align 8, !tbaa !96
  store ptr %16, ptr %17, align 8, !tbaa !4
  %18 = load ptr, ptr %7, align 8, !tbaa !96
  %19 = load ptr, ptr %18, align 8, !tbaa !4
  call void @llvm.memcpy.p0.p0.i64(ptr align 1 %19, ptr align 1 @.str.9, i64 4, i1 false)
  %20 = load ptr, ptr %7, align 8, !tbaa !96
  %21 = load ptr, ptr %20, align 8, !tbaa !4
  %22 = getelementptr inbounds i8, ptr %21, i64 4
  %23 = load ptr, ptr %5, align 8, !tbaa !4
  %24 = load i64, ptr %6, align 8, !tbaa !83
  call void @llvm.memcpy.p0.p0.i64(ptr align 1 %22, ptr align 1 %23, i64 %24, i1 false)
  %25 = load ptr, ptr %7, align 8, !tbaa !96
  %26 = load ptr, ptr %25, align 8, !tbaa !4
  %27 = getelementptr inbounds i8, ptr %26, i64 4
  %28 = load i64, ptr %6, align 8, !tbaa !83
  %29 = getelementptr inbounds nuw i8, ptr %27, i64 %28
  call void @llvm.memcpy.p0.p0.i64(ptr align 1 %29, ptr align 1 @.str.10, i64 3, i1 false)
  %30 = load ptr, ptr %7, align 8, !tbaa !96
  %31 = load ptr, ptr %30, align 8, !tbaa !4
  %32 = load ptr, ptr %8, align 8, !tbaa !97
  %33 = load i64, ptr %32, align 8, !tbaa !83
  %34 = getelementptr inbounds nuw i8, ptr %31, i64 %33
  store i8 0, ptr %34, align 1, !tbaa !44
  ret void
}

; Function Attrs: nounwind uwtable
define internal void @comment_handler(ptr noundef %0, ptr noundef %1) #0 {
  %3 = alloca ptr, align 8
  %4 = alloca ptr, align 8
  %5 = alloca ptr, align 8
  %6 = alloca ptr, align 8
  %7 = alloca i64, align 8
  store ptr %0, ptr %3, align 8, !tbaa !53
  store ptr %1, ptr %4, align 8, !tbaa !4
  call void @llvm.lifetime.start.p0(i64 8, ptr %5) #8
  %8 = load ptr, ptr %3, align 8, !tbaa !53
  store ptr %8, ptr %5, align 8, !tbaa !11
  %9 = load ptr, ptr %5, align 8, !tbaa !11
  %10 = getelementptr inbounds nuw %struct.XML_Parser_Struct, ptr %9, i32 0, i32 9
  %11 = load ptr, ptr %10, align 8, !tbaa !60
  %12 = icmp ne ptr %11, null
  br i1 %12, label %13, label %29

13:                                               ; preds = %2
  call void @llvm.lifetime.start.p0(i64 8, ptr %6) #8
  call void @llvm.lifetime.start.p0(i64 8, ptr %7) #8
  %14 = load ptr, ptr %4, align 8, !tbaa !4
  %15 = load ptr, ptr %4, align 8, !tbaa !4
  %16 = call i32 @xmlStrlen(ptr noundef %15)
  %17 = sext i32 %16 to i64
  call void @build_comment(ptr noundef %14, i64 noundef %17, ptr noundef %6, ptr noundef %7)
  %18 = load ptr, ptr %5, align 8, !tbaa !11
  %19 = getelementptr inbounds nuw %struct.XML_Parser_Struct, ptr %18, i32 0, i32 9
  %20 = load ptr, ptr %19, align 8, !tbaa !60
  %21 = load ptr, ptr %5, align 8, !tbaa !11
  %22 = getelementptr inbounds nuw %struct.XML_Parser_Struct, ptr %21, i32 0, i32 2
  %23 = load ptr, ptr %22, align 8, !tbaa !54
  %24 = load ptr, ptr %6, align 8, !tbaa !4
  %25 = load i64, ptr %7, align 8, !tbaa !83
  %26 = trunc i64 %25 to i32
  call void %20(ptr noundef %23, ptr noundef %24, i32 noundef %26)
  %27 = load ptr, ptr @xmlFree, align 8, !tbaa !53
  %28 = load ptr, ptr %6, align 8, !tbaa !4
  call void %27(ptr noundef %28)
  call void @llvm.lifetime.end.p0(i64 8, ptr %7) #8
  call void @llvm.lifetime.end.p0(i64 8, ptr %6) #8
  br label %29

29:                                               ; preds = %13, %2
  call void @llvm.lifetime.end.p0(i64 8, ptr %5) #8
  ret void
}