; Function Attrs: nounwind uwtable
define internal void @comment_handler(ptr noundef readonly captures(none) %0, ptr noundef %1) #0 {
  %3 = getelementptr inbounds nuw i8, ptr %0, i64 72
  %4 = load ptr, ptr %3, align 8, !tbaa !53
  %.not = icmp eq ptr %4, null
  br i1 %.not, label %20, label %5

5:                                                ; preds = %2
  %6 = tail call i32 @xmlStrlen(ptr noundef %1) #11
  %7 = sext i32 %6 to i64
  %8 = add nsw i64 %7, 7
  %9 = load ptr, ptr @xmlMalloc, align 8, !tbaa !72
  %10 = add nsw i64 %7, 8
  %11 = tail call ptr %9(i64 noundef %10) #11
  store i32 757932348, ptr %11, align 1
  %12 = getelementptr inbounds nuw i8, ptr %11, i64 4
  tail call void @llvm.memcpy.p0.p0.i64(ptr nonnull align 1 %12, ptr readonly align 1 %1, i64 range(i64 -2147483648, 2147483648) %7, i1 false)
  %13 = getelementptr inbounds nuw i8, ptr %12, i64 %7
  tail call void @llvm.memcpy.p0.p0.i64(ptr noundef nonnull align 1 dereferenceable(3) %13, ptr noundef nonnull align 1 dereferenceable(3) @.str.10, i64 3, i1 false)
  %14 = getelementptr inbounds nuw i8, ptr %11, i64 %8
  store i8 0, ptr %14, align 1, !tbaa !46
  %15 = load ptr, ptr %3, align 8, !tbaa !53
  %16 = getelementptr inbounds nuw i8, ptr %0, i64 16
  %17 = load ptr, ptr %16, align 8, !tbaa !47
  %18 = trunc i64 %8 to i32
  tail call void %15(ptr noundef %17, ptr noundef nonnull %11, i32 noundef %18) #11
  %19 = load ptr, ptr @xmlFree, align 8, !tbaa !72
  tail call void %19(ptr noundef nonnull %11) #11
  br label %20

20:                                               ; preds = %5, %2
  ret void
}